
Steering_Wheel.elf:     file format elf32-avr

Sections:
Idx Name          Size      VMA       LMA       File off  Algn
  0 .text         000005b8  00000000  00000000  00000094  2**1
                  CONTENTS, ALLOC, LOAD, READONLY, CODE
  1 .data         00000010  00800060  000005b8  0000064c  2**0
                  CONTENTS, ALLOC, LOAD, DATA
  2 .bss          00000129  00800070  00800070  0000065c  2**0
                  ALLOC
  3 .comment      00000011  00000000  00000000  0000065c  2**0
                  CONTENTS, READONLY
  4 .note.gnu.avr.deviceinfo 0000003c  00000000  00000000  00000670  2**2
                  CONTENTS, READONLY
  5 .debug_info   0000048c  00000000  00000000  000006ac  2**0
                  CONTENTS, READONLY, DEBUGGING
  6 .debug_abbrev 0000044e  00000000  00000000  00000b38  2**0
                  CONTENTS, READONLY, DEBUGGING
  7 .debug_line   0000001a  00000000  00000000  00000f86  2**0
                  CONTENTS, READONLY, DEBUGGING
  8 .debug_str    0000017a  00000000  00000000  00000fa0  2**0
                  CONTENTS, READONLY, DEBUGGING

Disassembly of section .text:

00000000 <__vectors>:
   0:	12 c0       	rjmp	.+36     	; 0x26 <__ctors_end>
   2:	2c c0       	rjmp	.+88     	; 0x5c <__bad_interrupt>
   4:	2b c0       	rjmp	.+86     	; 0x5c <__bad_interrupt>
   6:	ad c1       	rjmp	.+858    	; 0x362 <__vector_3>
   8:	29 c0       	rjmp	.+82     	; 0x5c <__bad_interrupt>
   a:	28 c0       	rjmp	.+80     	; 0x5c <__bad_interrupt>
   c:	29 c2       	rjmp	.+1106   	; 0x460 <__vector_6>
   e:	26 c0       	rjmp	.+76     	; 0x5c <__bad_interrupt>
  10:	25 c0       	rjmp	.+74     	; 0x5c <__bad_interrupt>
  12:	24 c0       	rjmp	.+72     	; 0x5c <__bad_interrupt>
  14:	23 c0       	rjmp	.+70     	; 0x5c <__bad_interrupt>
  16:	06 c1       	rjmp	.+524    	; 0x224 <__vector_11>
  18:	21 c0       	rjmp	.+66     	; 0x5c <__bad_interrupt>
  1a:	73 c1       	rjmp	.+742    	; 0x302 <__vector_13>
  1c:	1f c0       	rjmp	.+62     	; 0x5c <__bad_interrupt>
  1e:	1e c0       	rjmp	.+60     	; 0x5c <__bad_interrupt>
  20:	1d c0       	rjmp	.+58     	; 0x5c <__bad_interrupt>
  22:	1c c0       	rjmp	.+56     	; 0x5c <__bad_interrupt>
  24:	1b c0       	rjmp	.+54     	; 0x5c <__bad_interrupt>

00000026 <__ctors_end>:
  26:	11 24       	eor	r1, r1
  28:	1f be       	out	0x3f, r1	; 63
  2a:	cf e5       	ldi	r28, 0x5F	; 95
  2c:	d4 e0       	ldi	r29, 0x04	; 4
  2e:	de bf       	out	0x3e, r29	; 62
  30:	cd bf       	out	0x3d, r28	; 61

00000032 <__do_copy_data>:
  32:	10 e0       	ldi	r17, 0x00	; 0
  34:	a0 e6       	ldi	r26, 0x60	; 96
  36:	b0 e0       	ldi	r27, 0x00	; 0
  38:	e8 eb       	ldi	r30, 0xB8	; 184
  3a:	f5 e0       	ldi	r31, 0x05	; 5
  3c:	02 c0       	rjmp	.+4      	; 0x42 <__SREG__+0x3>
  3e:	05 90       	lpm	r0, Z+
  40:	0d 92       	st	X+, r0
  42:	a0 37       	cpi	r26, 0x70	; 112
  44:	b1 07       	cpc	r27, r17
  46:	d9 f7       	brne	.-10     	; 0x3e <__SP_H__>

00000048 <__do_clear_bss>:
  48:	21 e0       	ldi	r18, 0x01	; 1
  4a:	a0 e7       	ldi	r26, 0x70	; 112
  4c:	b0 e0       	ldi	r27, 0x00	; 0
  4e:	01 c0       	rjmp	.+2      	; 0x52 <.do_clear_bss_start>

00000050 <.do_clear_bss_loop>:
  50:	1d 92       	st	X+, r1

00000052 <.do_clear_bss_start>:
  52:	a9 39       	cpi	r26, 0x99	; 153
  54:	b2 07       	cpc	r27, r18
  56:	e1 f7       	brne	.-8      	; 0x50 <.do_clear_bss_loop>
  58:	20 d2       	rcall	.+1088   	; 0x49a <main>
  5a:	ac c2       	rjmp	.+1368   	; 0x5b4 <_exit>

0000005c <__bad_interrupt>:
  5c:	d1 cf       	rjmp	.-94     	; 0x0 <__vectors>

0000005e <_Z5toQueR6QueueFRK5Frame>:
  5e:	cf 93       	push	r28
  60:	df 93       	push	r29
  62:	fc 01       	movw	r30, r24
  64:	84 81       	ldd	r24, Z+4	; 0x04
  66:	a0 81       	ld	r26, Z
  68:	b1 81       	ldd	r27, Z+1	; 0x01
  6a:	94 e0       	ldi	r25, 0x04	; 4
  6c:	89 9f       	mul	r24, r25
  6e:	a0 0d       	add	r26, r0
  70:	b1 1d       	adc	r27, r1
  72:	11 24       	eor	r1, r1
  74:	eb 01       	movw	r28, r22
  76:	48 81       	ld	r20, Y
  78:	59 81       	ldd	r21, Y+1	; 0x01
  7a:	6a 81       	ldd	r22, Y+2	; 0x02
  7c:	7b 81       	ldd	r23, Y+3	; 0x03
  7e:	4d 93       	st	X+, r20
  80:	5d 93       	st	X+, r21
  82:	6d 93       	st	X+, r22
  84:	7c 93       	st	X, r23
  86:	13 97       	sbiw	r26, 0x03	; 3
  88:	84 81       	ldd	r24, Z+4	; 0x04
  8a:	90 e0       	ldi	r25, 0x00	; 0
  8c:	01 96       	adiw	r24, 0x01	; 1
  8e:	62 81       	ldd	r22, Z+2	; 0x02
  90:	70 e0       	ldi	r23, 0x00	; 0
  92:	69 d2       	rcall	.+1234   	; 0x566 <__divmodhi4>
  94:	84 83       	std	Z+4, r24	; 0x04
  96:	df 91       	pop	r29
  98:	cf 91       	pop	r28
  9a:	08 95       	ret

0000009c <_Z7fromQueR6QueueF>:
  9c:	0f 93       	push	r16
  9e:	1f 93       	push	r17
  a0:	fc 01       	movw	r30, r24
  a2:	83 81       	ldd	r24, Z+3	; 0x03
  a4:	a0 81       	ld	r26, Z
  a6:	b1 81       	ldd	r27, Z+1	; 0x01
  a8:	94 e0       	ldi	r25, 0x04	; 4
  aa:	89 9f       	mul	r24, r25
  ac:	a0 0d       	add	r26, r0
  ae:	b1 1d       	adc	r27, r1
  b0:	11 24       	eor	r1, r1
  b2:	0d 91       	ld	r16, X+
  b4:	1d 91       	ld	r17, X+
  b6:	2d 91       	ld	r18, X+
  b8:	3c 91       	ld	r19, X
  ba:	83 81       	ldd	r24, Z+3	; 0x03
  bc:	90 e0       	ldi	r25, 0x00	; 0
  be:	01 96       	adiw	r24, 0x01	; 1
  c0:	62 81       	ldd	r22, Z+2	; 0x02
  c2:	70 e0       	ldi	r23, 0x00	; 0
  c4:	50 d2       	rcall	.+1184   	; 0x566 <__divmodhi4>
  c6:	83 83       	std	Z+3, r24	; 0x03
  c8:	c9 01       	movw	r24, r18
  ca:	b8 01       	movw	r22, r16
  cc:	1f 91       	pop	r17
  ce:	0f 91       	pop	r16
  d0:	08 95       	ret

000000d2 <_Z10isQueEmptyRK6QueueF>:
  d2:	fc 01       	movw	r30, r24
  d4:	23 81       	ldd	r18, Z+3	; 0x03
  d6:	94 81       	ldd	r25, Z+4	; 0x04
  d8:	81 e0       	ldi	r24, 0x01	; 1
  da:	29 13       	cpse	r18, r25
  dc:	80 e0       	ldi	r24, 0x00	; 0
  de:	08 95       	ret

000000e0 <_Z9isQueFullRK6QueueF>:
  e0:	fc 01       	movw	r30, r24
  e2:	24 81       	ldd	r18, Z+4	; 0x04
  e4:	30 e0       	ldi	r19, 0x00	; 0
  e6:	82 81       	ldd	r24, Z+2	; 0x02
  e8:	90 e0       	ldi	r25, 0x00	; 0
  ea:	01 97       	sbiw	r24, 0x01	; 1
  ec:	28 17       	cp	r18, r24
  ee:	39 07       	cpc	r19, r25
  f0:	19 f4       	brne	.+6      	; 0xf8 <_Z9isQueFullRK6QueueF+0x18>
  f2:	83 81       	ldd	r24, Z+3	; 0x03
  f4:	88 23       	and	r24, r24
  f6:	61 f0       	breq	.+24     	; 0x110 <_Z9isQueFullRK6QueueF+0x30>
  f8:	43 81       	ldd	r20, Z+3	; 0x03
  fa:	24 81       	ldd	r18, Z+4	; 0x04
  fc:	30 e0       	ldi	r19, 0x00	; 0
  fe:	2f 5f       	subi	r18, 0xFF	; 255
 100:	3f 4f       	sbci	r19, 0xFF	; 255
 102:	50 e0       	ldi	r21, 0x00	; 0
 104:	81 e0       	ldi	r24, 0x01	; 1
 106:	24 17       	cp	r18, r20
 108:	35 07       	cpc	r19, r21
 10a:	19 f0       	breq	.+6      	; 0x112 <_Z9isQueFullRK6QueueF+0x32>
 10c:	80 e0       	ldi	r24, 0x00	; 0
 10e:	08 95       	ret
 110:	81 e0       	ldi	r24, 0x01	; 1
 112:	08 95       	ret

00000114 <_Z5toQueR6QueueBRKh>:
 114:	fc 01       	movw	r30, r24
 116:	94 81       	ldd	r25, Z+4	; 0x04
 118:	db 01       	movw	r26, r22
 11a:	8c 91       	ld	r24, X
 11c:	a0 81       	ld	r26, Z
 11e:	b1 81       	ldd	r27, Z+1	; 0x01
 120:	a9 0f       	add	r26, r25
 122:	b1 1d       	adc	r27, r1
 124:	8c 93       	st	X, r24
 126:	84 81       	ldd	r24, Z+4	; 0x04
 128:	90 e0       	ldi	r25, 0x00	; 0
 12a:	01 96       	adiw	r24, 0x01	; 1
 12c:	62 81       	ldd	r22, Z+2	; 0x02
 12e:	70 e0       	ldi	r23, 0x00	; 0
 130:	1a d2       	rcall	.+1076   	; 0x566 <__divmodhi4>
 132:	84 83       	std	Z+4, r24	; 0x04
 134:	08 95       	ret

00000136 <_Z7fromQueR6QueueB>:
 136:	fc 01       	movw	r30, r24
 138:	83 81       	ldd	r24, Z+3	; 0x03
 13a:	a0 81       	ld	r26, Z
 13c:	b1 81       	ldd	r27, Z+1	; 0x01
 13e:	a8 0f       	add	r26, r24
 140:	b1 1d       	adc	r27, r1
 142:	2c 91       	ld	r18, X
 144:	83 81       	ldd	r24, Z+3	; 0x03
 146:	90 e0       	ldi	r25, 0x00	; 0
 148:	01 96       	adiw	r24, 0x01	; 1
 14a:	62 81       	ldd	r22, Z+2	; 0x02
 14c:	70 e0       	ldi	r23, 0x00	; 0
 14e:	0b d2       	rcall	.+1046   	; 0x566 <__divmodhi4>
 150:	83 83       	std	Z+3, r24	; 0x03
 152:	82 2f       	mov	r24, r18
 154:	08 95       	ret

00000156 <_Z10isQueEmptyRK6QueueB>:
 156:	fc 01       	movw	r30, r24
 158:	23 81       	ldd	r18, Z+3	; 0x03
 15a:	94 81       	ldd	r25, Z+4	; 0x04
 15c:	81 e0       	ldi	r24, 0x01	; 1
 15e:	29 13       	cpse	r18, r25
 160:	80 e0       	ldi	r24, 0x00	; 0
 162:	08 95       	ret

00000164 <_Z13getFrameReadyRK5Frame>:
 164:	df 92       	push	r13
 166:	ef 92       	push	r14
 168:	ff 92       	push	r15
 16a:	0f 93       	push	r16
 16c:	1f 93       	push	r17
 16e:	cf 93       	push	r28
 170:	df 93       	push	r29
 172:	1f 92       	push	r1
 174:	cd b7       	in	r28, 0x3d	; 61
 176:	de b7       	in	r29, 0x3e	; 62
 178:	7c 01       	movw	r14, r24
 17a:	10 92 75 00 	sts	0x0075, r1	; 0x800075 <busEmpty>
 17e:	81 e7       	ldi	r24, 0x71	; 113
 180:	5d 9b       	sbis	0x0b, 5	; 11
 182:	02 c0       	rjmp	.+4      	; 0x188 <_Z13getFrameReadyRK5Frame+0x24>
 184:	8c b9       	out	0x0c, r24	; 12
 186:	07 c0       	rjmp	.+14     	; 0x196 <_Z13getFrameReadyRK5Frame+0x32>
 188:	89 83       	std	Y+1, r24	; 0x01
 18a:	be 01       	movw	r22, r28
 18c:	6f 5f       	subi	r22, 0xFF	; 255
 18e:	7f 4f       	sbci	r23, 0xFF	; 255
 190:	8b e6       	ldi	r24, 0x6B	; 107
 192:	90 e0       	ldi	r25, 0x00	; 0
 194:	bf df       	rcall	.-130    	; 0x114 <_Z5toQueR6QueueBRKh>
 196:	87 01       	movw	r16, r14
 198:	85 e0       	ldi	r24, 0x05	; 5
 19a:	e8 0e       	add	r14, r24
 19c:	f1 1c       	adc	r15, r1
 19e:	83 e7       	ldi	r24, 0x73	; 115
 1a0:	d8 2e       	mov	r13, r24
 1a2:	f8 01       	movw	r30, r16
 1a4:	80 81       	ld	r24, Z
 1a6:	98 2f       	mov	r25, r24
 1a8:	9d 7f       	andi	r25, 0xFD	; 253
 1aa:	91 37       	cpi	r25, 0x71	; 113
 1ac:	11 f0       	breq	.+4      	; 0x1b2 <_Z13getFrameReadyRK5Frame+0x4e>
 1ae:	89 37       	cpi	r24, 0x79	; 121
 1b0:	39 f4       	brne	.+14     	; 0x1c0 <_Z13getFrameReadyRK5Frame+0x5c>
 1b2:	d9 82       	std	Y+1, r13	; 0x01
 1b4:	be 01       	movw	r22, r28
 1b6:	6f 5f       	subi	r22, 0xFF	; 255
 1b8:	7f 4f       	sbci	r23, 0xFF	; 255
 1ba:	8b e6       	ldi	r24, 0x6B	; 107
 1bc:	90 e0       	ldi	r25, 0x00	; 0
 1be:	aa df       	rcall	.-172    	; 0x114 <_Z5toQueR6QueueBRKh>
 1c0:	b8 01       	movw	r22, r16
 1c2:	8b e6       	ldi	r24, 0x6B	; 107
 1c4:	90 e0       	ldi	r25, 0x00	; 0
 1c6:	a6 df       	rcall	.-180    	; 0x114 <_Z5toQueR6QueueBRKh>
 1c8:	0f 5f       	subi	r16, 0xFF	; 255
 1ca:	1f 4f       	sbci	r17, 0xFF	; 255
 1cc:	0e 15       	cp	r16, r14
 1ce:	1f 05       	cpc	r17, r15
 1d0:	41 f7       	brne	.-48     	; 0x1a2 <_Z13getFrameReadyRK5Frame+0x3e>
 1d2:	89 e7       	ldi	r24, 0x79	; 121
 1d4:	89 83       	std	Y+1, r24	; 0x01
 1d6:	be 01       	movw	r22, r28
 1d8:	6f 5f       	subi	r22, 0xFF	; 255
 1da:	7f 4f       	sbci	r23, 0xFF	; 255
 1dc:	8b e6       	ldi	r24, 0x6B	; 107
 1de:	90 e0       	ldi	r25, 0x00	; 0
 1e0:	99 df       	rcall	.-206    	; 0x114 <_Z5toQueR6QueueBRKh>
 1e2:	0f 90       	pop	r0
 1e4:	df 91       	pop	r29
 1e6:	cf 91       	pop	r28
 1e8:	1f 91       	pop	r17
 1ea:	0f 91       	pop	r16
 1ec:	ff 90       	pop	r15
 1ee:	ef 90       	pop	r14
 1f0:	df 90       	pop	r13
 1f2:	08 95       	ret

000001f4 <_Z9sendFrameRK5Frame>:
 1f4:	cf 93       	push	r28
 1f6:	df 93       	push	r29
 1f8:	20 91 75 00 	lds	r18, 0x0075	; 0x800075 <busEmpty>
 1fc:	22 23       	and	r18, r18
 1fe:	19 f0       	breq	.+6      	; 0x206 <_Z9sendFrameRK5Frame+0x12>
 200:	df 91       	pop	r29
 202:	cf 91       	pop	r28
 204:	af cf       	rjmp	.-162    	; 0x164 <_Z13getFrameReadyRK5Frame>
 206:	ec 01       	movw	r28, r24
 208:	81 e6       	ldi	r24, 0x61	; 97
 20a:	90 e0       	ldi	r25, 0x00	; 0
 20c:	69 df       	rcall	.-302    	; 0xe0 <_Z9isQueFullRK6QueueF>
 20e:	81 11       	cpse	r24, r1
 210:	06 c0       	rjmp	.+12     	; 0x21e <_Z9sendFrameRK5Frame+0x2a>
 212:	be 01       	movw	r22, r28
 214:	81 e6       	ldi	r24, 0x61	; 97
 216:	90 e0       	ldi	r25, 0x00	; 0
 218:	df 91       	pop	r29
 21a:	cf 91       	pop	r28
 21c:	20 cf       	rjmp	.-448    	; 0x5e <_Z5toQueR6QueueFRK5Frame>
 21e:	df 91       	pop	r29
 220:	cf 91       	pop	r28
 222:	08 95       	ret

00000224 <__vector_11>:
 224:	1f 92       	push	r1
 226:	0f 92       	push	r0
 228:	0f b6       	in	r0, 0x3f	; 63
 22a:	0f 92       	push	r0
 22c:	11 24       	eor	r1, r1
 22e:	2f 93       	push	r18
 230:	3f 93       	push	r19
 232:	4f 93       	push	r20
 234:	5f 93       	push	r21
 236:	6f 93       	push	r22
 238:	7f 93       	push	r23
 23a:	8f 93       	push	r24
 23c:	9f 93       	push	r25
 23e:	af 93       	push	r26
 240:	bf 93       	push	r27
 242:	ef 93       	push	r30
 244:	ff 93       	push	r31
 246:	85 b5       	in	r24, 0x25	; 37
 248:	15 bc       	out	0x25, r1	; 37
 24a:	10 92 75 00 	sts	0x0075, r1	; 0x800075 <busEmpty>
 24e:	8c b1       	in	r24, 0x0c	; 12
 250:	e0 91 60 00 	lds	r30, 0x0060	; 0x800060 <__data_start>
 254:	ef 3f       	cpi	r30, 0xFF	; 255
 256:	29 f4       	brne	.+10     	; 0x262 <__vector_11+0x3e>
 258:	81 37       	cpi	r24, 0x71	; 113
 25a:	39 f4       	brne	.+14     	; 0x26a <__vector_11+0x46>
 25c:	10 92 60 00 	sts	0x0060, r1	; 0x800060 <__data_start>
 260:	3b c0       	rjmp	.+118    	; 0x2d8 <__vector_11+0xb4>
 262:	e4 30       	cpi	r30, 0x04	; 4
 264:	a1 f4       	brne	.+40     	; 0x28e <__vector_11+0x6a>
 266:	89 37       	cpi	r24, 0x79	; 121
 268:	21 f0       	breq	.+8      	; 0x272 <__vector_11+0x4e>
 26a:	8f ef       	ldi	r24, 0xFF	; 255
 26c:	80 93 60 00 	sts	0x0060, r24	; 0x800060 <__data_start>
 270:	33 c0       	rjmp	.+102    	; 0x2d8 <__vector_11+0xb4>
 272:	8f ef       	ldi	r24, 0xFF	; 255
 274:	80 93 60 00 	sts	0x0060, r24	; 0x800060 <__data_start>
 278:	86 e6       	ldi	r24, 0x66	; 102
 27a:	90 e0       	ldi	r25, 0x00	; 0
 27c:	31 df       	rcall	.-414    	; 0xe0 <_Z9isQueFullRK6QueueF>
 27e:	81 11       	cpse	r24, r1
 280:	2b c0       	rjmp	.+86     	; 0x2d8 <__vector_11+0xb4>
 282:	61 e7       	ldi	r22, 0x71	; 113
 284:	70 e0       	ldi	r23, 0x00	; 0
 286:	86 e6       	ldi	r24, 0x66	; 102
 288:	90 e0       	ldi	r25, 0x00	; 0
 28a:	e9 de       	rcall	.-558    	; 0x5e <_Z5toQueR6QueueFRK5Frame>
 28c:	25 c0       	rjmp	.+74     	; 0x2d8 <__vector_11+0xb4>
 28e:	90 91 70 00 	lds	r25, 0x0070	; 0x800070 <__data_end>
 292:	99 23       	and	r25, r25
 294:	69 f0       	breq	.+26     	; 0x2b0 <__vector_11+0x8c>
 296:	91 e0       	ldi	r25, 0x01	; 1
 298:	9e 0f       	add	r25, r30
 29a:	90 93 60 00 	sts	0x0060, r25	; 0x800060 <__data_start>
 29e:	0e 2e       	mov	r0, r30
 2a0:	00 0c       	add	r0, r0
 2a2:	ff 0b       	sbc	r31, r31
 2a4:	ef 58       	subi	r30, 0x8F	; 143
 2a6:	ff 4f       	sbci	r31, 0xFF	; 255
 2a8:	80 83       	st	Z, r24
 2aa:	10 92 70 00 	sts	0x0070, r1	; 0x800070 <__data_end>
 2ae:	14 c0       	rjmp	.+40     	; 0x2d8 <__vector_11+0xb4>
 2b0:	83 37       	cpi	r24, 0x73	; 115
 2b2:	21 f4       	brne	.+8      	; 0x2bc <__vector_11+0x98>
 2b4:	81 e0       	ldi	r24, 0x01	; 1
 2b6:	80 93 70 00 	sts	0x0070, r24	; 0x800070 <__data_end>
 2ba:	0e c0       	rjmp	.+28     	; 0x2d8 <__vector_11+0xb4>
 2bc:	98 2f       	mov	r25, r24
 2be:	97 7f       	andi	r25, 0xF7	; 247
 2c0:	91 37       	cpi	r25, 0x71	; 113
 2c2:	99 f2       	breq	.-90     	; 0x26a <__vector_11+0x46>
 2c4:	91 e0       	ldi	r25, 0x01	; 1
 2c6:	9e 0f       	add	r25, r30
 2c8:	90 93 60 00 	sts	0x0060, r25	; 0x800060 <__data_start>
 2cc:	0e 2e       	mov	r0, r30
 2ce:	00 0c       	add	r0, r0
 2d0:	ff 0b       	sbc	r31, r31
 2d2:	ef 58       	subi	r30, 0x8F	; 143
 2d4:	ff 4f       	sbci	r31, 0xFF	; 255
 2d6:	80 83       	st	Z, r24
 2d8:	14 bc       	out	0x24, r1	; 36
 2da:	85 b5       	in	r24, 0x25	; 37
 2dc:	85 60       	ori	r24, 0x05	; 5
 2de:	85 bd       	out	0x25, r24	; 37
 2e0:	ff 91       	pop	r31
 2e2:	ef 91       	pop	r30
 2e4:	bf 91       	pop	r27
 2e6:	af 91       	pop	r26
 2e8:	9f 91       	pop	r25
 2ea:	8f 91       	pop	r24
 2ec:	7f 91       	pop	r23
 2ee:	6f 91       	pop	r22
 2f0:	5f 91       	pop	r21
 2f2:	4f 91       	pop	r20
 2f4:	3f 91       	pop	r19
 2f6:	2f 91       	pop	r18
 2f8:	0f 90       	pop	r0
 2fa:	0f be       	out	0x3f, r0	; 63
 2fc:	0f 90       	pop	r0
 2fe:	1f 90       	pop	r1
 300:	18 95       	reti

00000302 <__vector_13>:
 302:	1f 92       	push	r1
 304:	0f 92       	push	r0
 306:	0f b6       	in	r0, 0x3f	; 63
 308:	0f 92       	push	r0
 30a:	11 24       	eor	r1, r1
 30c:	2f 93       	push	r18
 30e:	3f 93       	push	r19
 310:	4f 93       	push	r20
 312:	5f 93       	push	r21
 314:	6f 93       	push	r22
 316:	7f 93       	push	r23
 318:	8f 93       	push	r24
 31a:	9f 93       	push	r25
 31c:	af 93       	push	r26
 31e:	bf 93       	push	r27
 320:	ef 93       	push	r30
 322:	ff 93       	push	r31
 324:	8b e6       	ldi	r24, 0x6B	; 107
 326:	90 e0       	ldi	r25, 0x00	; 0
 328:	16 df       	rcall	.-468    	; 0x156 <_Z10isQueEmptyRK6QueueB>
 32a:	88 23       	and	r24, r24
 32c:	29 f0       	breq	.+10     	; 0x338 <__vector_13+0x36>
 32e:	14 bc       	out	0x24, r1	; 36
 330:	85 b5       	in	r24, 0x25	; 37
 332:	85 60       	ori	r24, 0x05	; 5
 334:	85 bd       	out	0x25, r24	; 37
 336:	04 c0       	rjmp	.+8      	; 0x340 <__vector_13+0x3e>
 338:	8b e6       	ldi	r24, 0x6B	; 107
 33a:	90 e0       	ldi	r25, 0x00	; 0
 33c:	fc de       	rcall	.-520    	; 0x136 <_Z7fromQueR6QueueB>
 33e:	8c b9       	out	0x0c, r24	; 12
 340:	ff 91       	pop	r31
 342:	ef 91       	pop	r30
 344:	bf 91       	pop	r27
 346:	af 91       	pop	r26
 348:	9f 91       	pop	r25
 34a:	8f 91       	pop	r24
 34c:	7f 91       	pop	r23
 34e:	6f 91       	pop	r22
 350:	5f 91       	pop	r21
 352:	4f 91       	pop	r20
 354:	3f 91       	pop	r19
 356:	2f 91       	pop	r18
 358:	0f 90       	pop	r0
 35a:	0f be       	out	0x3f, r0	; 63
 35c:	0f 90       	pop	r0
 35e:	1f 90       	pop	r1
 360:	18 95       	reti

00000362 <__vector_3>:
 362:	1f 92       	push	r1
 364:	0f 92       	push	r0
 366:	0f b6       	in	r0, 0x3f	; 63
 368:	0f 92       	push	r0
 36a:	11 24       	eor	r1, r1
 36c:	2f 93       	push	r18
 36e:	3f 93       	push	r19
 370:	4f 93       	push	r20
 372:	5f 93       	push	r21
 374:	6f 93       	push	r22
 376:	7f 93       	push	r23
 378:	8f 93       	push	r24
 37a:	9f 93       	push	r25
 37c:	af 93       	push	r26
 37e:	bf 93       	push	r27
 380:	ef 93       	push	r30
 382:	ff 93       	push	r31
 384:	cf 93       	push	r28
 386:	df 93       	push	r29
 388:	00 d0       	rcall	.+0      	; 0x38a <__vector_3+0x28>
 38a:	00 d0       	rcall	.+0      	; 0x38c <__vector_3+0x2a>
 38c:	cd b7       	in	r28, 0x3d	; 61
 38e:	de b7       	in	r29, 0x3e	; 62
 390:	81 e6       	ldi	r24, 0x61	; 97
 392:	90 e0       	ldi	r25, 0x00	; 0
 394:	9e de       	rcall	.-708    	; 0xd2 <_Z10isQueEmptyRK6QueueF>
 396:	88 23       	and	r24, r24
 398:	39 f0       	breq	.+14     	; 0x3a8 <__vector_3+0x46>
 39a:	85 b5       	in	r24, 0x25	; 37
 39c:	15 bc       	out	0x25, r1	; 37
 39e:	14 bc       	out	0x24, r1	; 36
 3a0:	81 e0       	ldi	r24, 0x01	; 1
 3a2:	80 93 75 00 	sts	0x0075, r24	; 0x800075 <busEmpty>
 3a6:	0a c0       	rjmp	.+20     	; 0x3bc <__vector_3+0x5a>
 3a8:	81 e6       	ldi	r24, 0x61	; 97
 3aa:	90 e0       	ldi	r25, 0x00	; 0
 3ac:	77 de       	rcall	.-786    	; 0x9c <_Z7fromQueR6QueueF>
 3ae:	69 83       	std	Y+1, r22	; 0x01
 3b0:	7a 83       	std	Y+2, r23	; 0x02
 3b2:	8b 83       	std	Y+3, r24	; 0x03
 3b4:	9c 83       	std	Y+4, r25	; 0x04
 3b6:	ce 01       	movw	r24, r28
 3b8:	01 96       	adiw	r24, 0x01	; 1
 3ba:	d4 de       	rcall	.-600    	; 0x164 <_Z13getFrameReadyRK5Frame>
 3bc:	0f 90       	pop	r0
 3be:	0f 90       	pop	r0
 3c0:	0f 90       	pop	r0
 3c2:	0f 90       	pop	r0
 3c4:	df 91       	pop	r29
 3c6:	cf 91       	pop	r28
 3c8:	ff 91       	pop	r31
 3ca:	ef 91       	pop	r30
 3cc:	bf 91       	pop	r27
 3ce:	af 91       	pop	r26
 3d0:	9f 91       	pop	r25
 3d2:	8f 91       	pop	r24
 3d4:	7f 91       	pop	r23
 3d6:	6f 91       	pop	r22
 3d8:	5f 91       	pop	r21
 3da:	4f 91       	pop	r20
 3dc:	3f 91       	pop	r19
 3de:	2f 91       	pop	r18
 3e0:	0f 90       	pop	r0
 3e2:	0f be       	out	0x3f, r0	; 63
 3e4:	0f 90       	pop	r0
 3e6:	1f 90       	pop	r1
 3e8:	18 95       	reti

000003ea <_Z10timer2Initv>:
 3ea:	85 b5       	in	r24, 0x25	; 37
 3ec:	88 60       	ori	r24, 0x08	; 8
 3ee:	85 bd       	out	0x25, r24	; 37
 3f0:	88 ec       	ldi	r24, 0xC8	; 200
 3f2:	83 bd       	out	0x23, r24	; 35
 3f4:	89 b7       	in	r24, 0x39	; 57
 3f6:	80 68       	ori	r24, 0x80	; 128
 3f8:	89 bf       	out	0x39, r24	; 57
 3fa:	85 b5       	in	r24, 0x25	; 37
 3fc:	85 60       	ori	r24, 0x05	; 5
 3fe:	85 bd       	out	0x25, r24	; 37
 400:	08 95       	ret

00000402 <_Z10RS485_Initj>:
 402:	90 bd       	out	0x20, r25	; 32
 404:	89 b9       	out	0x09, r24	; 9
 406:	88 ed       	ldi	r24, 0xD8	; 216
 408:	8a b9       	out	0x0a, r24	; 10
 40a:	80 b5       	in	r24, 0x20	; 32
 40c:	86 6a       	ori	r24, 0xA6	; 166
 40e:	80 bd       	out	0x20, r24	; 32
 410:	80 b5       	in	r24, 0x20	; 32
 412:	10 bc       	out	0x20, r1	; 32
 414:	ea cf       	rjmp	.-44     	; 0x3ea <_Z10timer2Initv>

00000416 <_Z7gencrc8PKhh>:
 416:	28 2f       	mov	r18, r24
 418:	fc 01       	movw	r30, r24
 41a:	8a e8       	ldi	r24, 0x8A	; 138
 41c:	31 e3       	ldi	r19, 0x31	; 49
 41e:	9e 2f       	mov	r25, r30
 420:	92 1b       	sub	r25, r18
 422:	96 17       	cp	r25, r22
 424:	60 f4       	brcc	.+24     	; 0x43e <_Z7gencrc8PKhh+0x28>
 426:	91 91       	ld	r25, Z+
 428:	89 27       	eor	r24, r25
 42a:	98 e0       	ldi	r25, 0x08	; 8
 42c:	87 ff       	sbrs	r24, 7
 42e:	03 c0       	rjmp	.+6      	; 0x436 <_Z7gencrc8PKhh+0x20>
 430:	88 0f       	add	r24, r24
 432:	83 27       	eor	r24, r19
 434:	01 c0       	rjmp	.+2      	; 0x438 <_Z7gencrc8PKhh+0x22>
 436:	88 0f       	add	r24, r24
 438:	91 50       	subi	r25, 0x01	; 1
 43a:	c1 f7       	brne	.-16     	; 0x42c <_Z7gencrc8PKhh+0x16>
 43c:	f0 cf       	rjmp	.-32     	; 0x41e <_Z7gencrc8PKhh+0x8>
 43e:	08 95       	ret

00000440 <_Z11crc8_updateR5Frame>:
 440:	cf 93       	push	r28
 442:	df 93       	push	r29
 444:	ec 01       	movw	r28, r24
 446:	63 e0       	ldi	r22, 0x03	; 3
 448:	e6 df       	rcall	.-52     	; 0x416 <_Z7gencrc8PKhh>
 44a:	8b 83       	std	Y+3, r24	; 0x03
 44c:	df 91       	pop	r29
 44e:	cf 91       	pop	r28
 450:	08 95       	ret

00000452 <_Z10crc8_checkRK5Frame>:
 452:	64 e0       	ldi	r22, 0x04	; 4
 454:	e0 df       	rcall	.-64     	; 0x416 <_Z7gencrc8PKhh>
 456:	91 e0       	ldi	r25, 0x01	; 1
 458:	81 11       	cpse	r24, r1
 45a:	90 e0       	ldi	r25, 0x00	; 0
 45c:	89 2f       	mov	r24, r25
 45e:	08 95       	ret

00000460 <__vector_6>:
 460:	1f 92       	push	r1
 462:	0f 92       	push	r0
 464:	0f b6       	in	r0, 0x3f	; 63
 466:	0f 92       	push	r0
 468:	11 24       	eor	r1, r1
 46a:	8f 93       	push	r24
 46c:	81 e0       	ldi	r24, 0x01	; 1
 46e:	80 93 98 01 	sts	0x0198, r24	; 0x800198 <shallSendButtonState>
 472:	8f 91       	pop	r24
 474:	0f 90       	pop	r0
 476:	0f be       	out	0x3f, r0	; 63
 478:	0f 90       	pop	r0
 47a:	1f 90       	pop	r1
 47c:	18 95       	reti

0000047e <_Z10timer1Initv>:
 47e:	8e b5       	in	r24, 0x2e	; 46
 480:	88 60       	ori	r24, 0x08	; 8
 482:	8e bd       	out	0x2e, r24	; 46
 484:	84 ea       	ldi	r24, 0xA4	; 164
 486:	91 e0       	ldi	r25, 0x01	; 1
 488:	9b bd       	out	0x2b, r25	; 43
 48a:	8a bd       	out	0x2a, r24	; 42
 48c:	89 b7       	in	r24, 0x39	; 57
 48e:	80 61       	ori	r24, 0x10	; 16
 490:	89 bf       	out	0x39, r24	; 57
 492:	8e b5       	in	r24, 0x2e	; 46
 494:	85 60       	ori	r24, 0x05	; 5
 496:	8e bd       	out	0x2e, r24	; 46
 498:	08 95       	ret

0000049a <main>:
 49a:	cf 93       	push	r28
 49c:	df 93       	push	r29
 49e:	cd b7       	in	r28, 0x3d	; 61
 4a0:	de b7       	in	r29, 0x3e	; 62
 4a2:	28 97       	sbiw	r28, 0x08	; 8
 4a4:	0f b6       	in	r0, 0x3f	; 63
 4a6:	f8 94       	cli
 4a8:	de bf       	out	0x3e, r29	; 62
 4aa:	0f be       	out	0x3f, r0	; 63
 4ac:	cd bf       	out	0x3d, r28	; 61
 4ae:	87 b3       	in	r24, 0x17	; 23
 4b0:	17 ba       	out	0x17, r1	; 23
 4b2:	c2 9a       	sbi	0x18, 2	; 24
 4b4:	78 94       	sei
 4b6:	e3 df       	rcall	.-58     	; 0x47e <_Z10timer1Initv>
 4b8:	8c e0       	ldi	r24, 0x0C	; 12
 4ba:	90 e0       	ldi	r25, 0x00	; 0
 4bc:	a2 df       	rcall	.-188    	; 0x402 <_Z10RS485_Initj>
 4be:	f1 2c       	mov	r15, r1
 4c0:	00 e0       	ldi	r16, 0x00	; 0
 4c2:	85 e4       	ldi	r24, 0x45	; 69
 4c4:	e8 2e       	mov	r14, r24
 4c6:	9f e4       	ldi	r25, 0x4F	; 79
 4c8:	d9 2e       	mov	r13, r25
 4ca:	28 e5       	ldi	r18, 0x58	; 88
 4cc:	c2 2e       	mov	r12, r18
 4ce:	b2 99       	sbic	0x16, 2	; 22
 4d0:	05 c0       	rjmp	.+10     	; 0x4dc <main+0x42>
 4d2:	0b 3f       	cpi	r16, 0xFB	; 251
 4d4:	28 f4       	brcc	.+10     	; 0x4e0 <main+0x46>
 4d6:	0f 5f       	subi	r16, 0xFF	; 255
 4d8:	1f 2d       	mov	r17, r15
 4da:	04 c0       	rjmp	.+8      	; 0x4e4 <main+0x4a>
 4dc:	10 e0       	ldi	r17, 0x00	; 0
 4de:	01 c0       	rjmp	.+2      	; 0x4e2 <main+0x48>
 4e0:	11 e0       	ldi	r17, 0x01	; 1
 4e2:	00 e0       	ldi	r16, 0x00	; 0
 4e4:	86 e6       	ldi	r24, 0x66	; 102
 4e6:	90 e0       	ldi	r25, 0x00	; 0
 4e8:	f4 dd       	rcall	.-1048   	; 0xd2 <_Z10isQueEmptyRK6QueueF>
 4ea:	81 11       	cpse	r24, r1
 4ec:	18 c0       	rjmp	.+48     	; 0x51e <main+0x84>
 4ee:	86 e6       	ldi	r24, 0x66	; 102
 4f0:	90 e0       	ldi	r25, 0x00	; 0
 4f2:	d4 dd       	rcall	.-1112   	; 0x9c <_Z7fromQueR6QueueF>
 4f4:	69 83       	std	Y+1, r22	; 0x01
 4f6:	7a 83       	std	Y+2, r23	; 0x02
 4f8:	8b 83       	std	Y+3, r24	; 0x03
 4fa:	9c 83       	std	Y+4, r25	; 0x04
 4fc:	6b 34       	cpi	r22, 0x4B	; 75
 4fe:	19 f0       	breq	.+6      	; 0x506 <main+0x6c>
 500:	ce 01       	movw	r24, r28
 502:	01 96       	adiw	r24, 0x01	; 1
 504:	a6 df       	rcall	.-180    	; 0x452 <_Z10crc8_checkRK5Frame>
 506:	89 81       	ldd	r24, Y+1	; 0x01
 508:	9a 81       	ldd	r25, Y+2	; 0x02
 50a:	ab 81       	ldd	r26, Y+3	; 0x03
 50c:	bc 81       	ldd	r27, Y+4	; 0x04
 50e:	8d 83       	std	Y+5, r24	; 0x05
 510:	9e 83       	std	Y+6, r25	; 0x06
 512:	af 83       	std	Y+7, r26	; 0x07
 514:	b8 87       	std	Y+8, r27	; 0x08
 516:	ce 01       	movw	r24, r28
 518:	05 96       	adiw	r24, 0x05	; 5
 51a:	6c de       	rcall	.-808    	; 0x1f4 <_Z9sendFrameRK5Frame>
 51c:	e3 cf       	rjmp	.-58     	; 0x4e4 <main+0x4a>
 51e:	80 91 98 01 	lds	r24, 0x0198	; 0x800198 <shallSendButtonState>
 522:	88 23       	and	r24, r24
 524:	e9 f0       	breq	.+58     	; 0x560 <main+0xc6>
 526:	11 11       	cpse	r17, r1
 528:	0f c0       	rjmp	.+30     	; 0x548 <main+0xae>
 52a:	f1 10       	cpse	r15, r1
 52c:	03 c0       	rjmp	.+6      	; 0x534 <main+0x9a>
 52e:	10 e0       	ldi	r17, 0x00	; 0
 530:	f1 2e       	mov	r15, r17
 532:	cd cf       	rjmp	.-102    	; 0x4ce <main+0x34>
 534:	ed 82       	std	Y+5, r14	; 0x05
 536:	de 82       	std	Y+6, r13	; 0x06
 538:	df 82       	std	Y+7, r13	; 0x07
 53a:	ce 01       	movw	r24, r28
 53c:	05 96       	adiw	r24, 0x05	; 5
 53e:	80 df       	rcall	.-256    	; 0x440 <_Z11crc8_updateR5Frame>
 540:	ce 01       	movw	r24, r28
 542:	05 96       	adiw	r24, 0x05	; 5
 544:	57 de       	rcall	.-850    	; 0x1f4 <_Z9sendFrameRK5Frame>
 546:	f3 cf       	rjmp	.-26     	; 0x52e <main+0x94>
 548:	ed 82       	std	Y+5, r14	; 0x05
 54a:	ce 82       	std	Y+6, r12	; 0x06
 54c:	cf 82       	std	Y+7, r12	; 0x07
 54e:	ce 01       	movw	r24, r28
 550:	05 96       	adiw	r24, 0x05	; 5
 552:	76 df       	rcall	.-276    	; 0x440 <_Z11crc8_updateR5Frame>
 554:	ce 01       	movw	r24, r28
 556:	05 96       	adiw	r24, 0x05	; 5
 558:	4d de       	rcall	.-870    	; 0x1f4 <_Z9sendFrameRK5Frame>
 55a:	10 92 98 01 	sts	0x0198, r1	; 0x800198 <shallSendButtonState>
 55e:	e8 cf       	rjmp	.-48     	; 0x530 <main+0x96>
 560:	11 11       	cpse	r17, r1
 562:	e6 cf       	rjmp	.-52     	; 0x530 <main+0x96>
 564:	e2 cf       	rjmp	.-60     	; 0x52a <main+0x90>

00000566 <__divmodhi4>:
 566:	97 fb       	bst	r25, 7
 568:	07 2e       	mov	r0, r23
 56a:	16 f4       	brtc	.+4      	; 0x570 <__divmodhi4+0xa>
 56c:	00 94       	com	r0
 56e:	06 d0       	rcall	.+12     	; 0x57c <__divmodhi4_neg1>
 570:	77 fd       	sbrc	r23, 7
 572:	08 d0       	rcall	.+16     	; 0x584 <__divmodhi4_neg2>
 574:	0b d0       	rcall	.+22     	; 0x58c <__udivmodhi4>
 576:	07 fc       	sbrc	r0, 7
 578:	05 d0       	rcall	.+10     	; 0x584 <__divmodhi4_neg2>
 57a:	3e f4       	brtc	.+14     	; 0x58a <__divmodhi4_exit>

0000057c <__divmodhi4_neg1>:
 57c:	90 95       	com	r25
 57e:	81 95       	neg	r24
 580:	9f 4f       	sbci	r25, 0xFF	; 255
 582:	08 95       	ret

00000584 <__divmodhi4_neg2>:
 584:	70 95       	com	r23
 586:	61 95       	neg	r22
 588:	7f 4f       	sbci	r23, 0xFF	; 255

0000058a <__divmodhi4_exit>:
 58a:	08 95       	ret

0000058c <__udivmodhi4>:
 58c:	aa 1b       	sub	r26, r26
 58e:	bb 1b       	sub	r27, r27
 590:	51 e1       	ldi	r21, 0x11	; 17
 592:	07 c0       	rjmp	.+14     	; 0x5a2 <__udivmodhi4_ep>

00000594 <__udivmodhi4_loop>:
 594:	aa 1f       	adc	r26, r26
 596:	bb 1f       	adc	r27, r27
 598:	a6 17       	cp	r26, r22
 59a:	b7 07       	cpc	r27, r23
 59c:	10 f0       	brcs	.+4      	; 0x5a2 <__udivmodhi4_ep>
 59e:	a6 1b       	sub	r26, r22
 5a0:	b7 0b       	sbc	r27, r23

000005a2 <__udivmodhi4_ep>:
 5a2:	88 1f       	adc	r24, r24
 5a4:	99 1f       	adc	r25, r25
 5a6:	5a 95       	dec	r21
 5a8:	a9 f7       	brne	.-22     	; 0x594 <__udivmodhi4_loop>
 5aa:	80 95       	com	r24
 5ac:	90 95       	com	r25
 5ae:	bc 01       	movw	r22, r24
 5b0:	cd 01       	movw	r24, r26
 5b2:	08 95       	ret

000005b4 <_exit>:
 5b4:	f8 94       	cli

000005b6 <__stop_program>:
 5b6:	ff cf       	rjmp	.-2      	; 0x5b6 <__stop_program>
